; Function Attrs: mustprogress nofree norecurse nosync nounwind willreturn memory(argmem: read) uwtable
define dso_local ptr @_ZN4llvm17MachineBasicBlock22getProbabilityIteratorEPPS0_(ptr noundef nonnull readonly align 8 captures(none) dereferenceable(288) %0, ptr noundef %1) local_unnamed_addr #12 align 2 {
  %3 = getelementptr inbounds nuw i8, ptr %0, i64 112
  %4 = load ptr, ptr %3, align 8
  %5 = ptrtoint ptr %1 to i64
  %6 = ptrtoint ptr %4 to i64
  %7 = sub i64 %5, %6
  %8 = getelementptr inbounds nuw i8, ptr %0, i64 144
  %9 = load ptr, ptr %8, align 8
  %10 = ashr exact i64 %7, 1
  %11 = getelementptr inbounds i8, ptr %9, i64 %10
  ret ptr %11
}